target datalayout = "e-m:e-p270:32:32-p271:32:32-p272:64:64-i64:64-i128:128-f80:128-n8:16:32:64-S128"
target triple = "x86_64-unknown-linux-gnu"

; Function Attrs: mustprogress uwtable
define void @_ZN6icu_7522CompoundTransliterator18setTransliteratorsEPKPNS_14TransliteratorEi(ptr noundef nonnull align 8 dereferenceable(104) %this, ptr noundef %transliterators, i32 noundef %transCount) #1 align 2 {
entry:
  %this.addr = alloca ptr, align 8
  %transliterators.addr = alloca ptr, align 8
  %transCount.addr = alloca i32, align 4
  %a = alloca ptr, align 8
  %i = alloca i32, align 4
  %failed = alloca i8, align 1
  %n = alloca i32, align 4
  store ptr %this, ptr %this.addr, align 8
  store ptr %transliterators, ptr %transliterators.addr, align 8
  store i32 %transCount, ptr %transCount.addr, align 4
  %this1 = load ptr, ptr %this.addr, align 8
  %0 = load i32, ptr %transCount.addr, align 4
  %conv = sext i32 %0 to i64
  %mul = mul i64 %conv, 8
  %call = call noalias ptr @uprv_malloc_75(i64 noundef %mul) #7
  store ptr %call, ptr %a, align 8
  %1 = load ptr, ptr %a, align 8
  %cmp = icmp eq ptr %1, null
  br i1 %cmp, label %if.then, label %if.end

if.then:                                          ; preds = %entry
  br label %return

if.end:                                           ; preds = %entry
  store i32 0, ptr %i, align 4
  store i8 0, ptr %failed, align 1
  store i32 0, ptr %i, align 4
  br label %for.cond

for.cond:                                         ; preds = %for.inc, %if.end
  %2 = load i32, ptr %i, align 4
  %3 = load i32, ptr %transCount.addr, align 4
  %cmp2 = icmp slt i32 %2, %3
  br i1 %cmp2, label %for.body, label %for.end

for.body:                                         ; preds = %for.cond
  %4 = load ptr, ptr %transliterators.addr, align 8
  %5 = load i32, ptr %i, align 4
  %idxprom = sext i32 %5 to i64
  %arrayidx = getelementptr inbounds ptr, ptr %4, i64 %idxprom
  %6 = load ptr, ptr %arrayidx, align 8
  %vtable = load ptr, ptr %6, align 8
  %vfn = getelementptr inbounds ptr, ptr %vtable, i64 3
  %7 = load ptr, ptr %vfn, align 8
  %call3 = call noundef ptr %7(ptr noundef nonnull align 8 dereferenceable(84) %6)
  %8 = load ptr, ptr %a, align 8
  %9 = load i32, ptr %i, align 4
  %idxprom4 = sext i32 %9 to i64
  %arrayidx5 = getelementptr inbounds ptr, ptr %8, i64 %idxprom4
  store ptr %call3, ptr %arrayidx5, align 8
  %10 = load ptr, ptr %a, align 8
  %11 = load i32, ptr %i, align 4
  %idxprom6 = sext i32 %11 to i64
  %arrayidx7 = getelementptr inbounds ptr, ptr %10, i64 %idxprom6
  %12 = load ptr, ptr %arrayidx7, align 8
  %cmp8 = icmp eq ptr %12, null
  br i1 %cmp8, label %if.then9, label %if.end10

if.then9:                                         ; preds = %for.body
  store i8 1, ptr %failed, align 1
  br label %for.end

if.end10:                                         ; preds = %for.body
  br label %for.inc

for.inc:                                          ; preds = %if.end10
  %13 = load i32, ptr %i, align 4
  %inc = add nsw i32 %13, 1
  store i32 %inc, ptr %i, align 4
  br label %for.cond, !llvm.loop !6

for.end:                                          ; preds = %if.then9, %for.cond
  %14 = load i8, ptr %failed, align 1
  %tobool = icmp ne i8 %14, 0
  br i1 %tobool, label %land.lhs.true, label %if.end22

land.lhs.true:                                    ; preds = %for.end
  %15 = load i32, ptr %i, align 4
  %cmp11 = icmp sgt i32 %15, 0
  br i1 %cmp11, label %if.then12, label %if.end22

if.then12:                                        ; preds = %land.lhs.true
  %16 = load i32, ptr %i, align 4
  %sub = sub nsw i32 %16, 1
  store i32 %sub, ptr %n, align 4
  br label %for.cond13

for.cond13:                                       ; preds = %for.inc20, %if.then12
  %17 = load i32, ptr %n, align 4
  %cmp14 = icmp sge i32 %17, 0
  br i1 %cmp14, label %for.body15, label %for.end21

for.body15:                                       ; preds = %for.cond13
  %18 = load ptr, ptr %a, align 8
  %19 = load i32, ptr %n, align 4
  %idxprom16 = sext i32 %19 to i64
  %arrayidx17 = getelementptr inbounds ptr, ptr %18, i64 %idxprom16
  %20 = load ptr, ptr %arrayidx17, align 8
  call void @uprv_free_75(ptr noundef %20)
  %21 = load ptr, ptr %a, align 8
  %22 = load i32, ptr %n, align 4
  %idxprom18 = sext i32 %22 to i64
  %arrayidx19 = getelementptr inbounds ptr, ptr %21, i64 %idxprom18
  store ptr null, ptr %arrayidx19, align 8
  br label %for.inc20

for.inc20:                                        ; preds = %for.body15
  %23 = load i32, ptr %n, align 4
  %dec = add nsw i32 %23, -1
  store i32 %dec, ptr %n, align 4
  br label %for.cond13, !llvm.loop !7

for.end21:                                        ; preds = %for.cond13
  br label %return

if.end22:                                         ; preds = %land.lhs.true, %for.end
  %24 = load ptr, ptr %a, align 8
  %25 = load i32, ptr %transCount.addr, align 4
  call void @_ZN6icu_7522CompoundTransliterator20adoptTransliteratorsEPPNS_14TransliteratorEi(ptr noundef nonnull align 8 dereferenceable(104) %this1, ptr noundef %24, i32 noundef %25)
  br label %return

return:                                           ; preds = %if.end22, %for.end21, %if.then
  ret void
}