; Function Attrs: mustprogress uwtable
define void @_ZN6icu_7522CompoundTransliterator18setTransliteratorsEPKPNS_14TransliteratorEi(ptr noundef nonnull align 8 dereferenceable(104) %this, ptr nocapture noundef readonly %transliterators, i32 noundef %transCount) local_unnamed_addr #1 align 2 {
entry:
  %conv = sext i32 %transCount to i64
  %mul = shl nsw i64 %conv, 3
  %call = tail call noalias ptr @uprv_malloc_75(i64 noundef %mul) #14
  %cmp = icmp eq ptr %call, null
  br i1 %cmp, label %return, label %for.cond.preheader

for.cond.preheader:                               ; preds = %entry
  %cmp220 = icmp sgt i32 %transCount, 0
  br i1 %cmp220, label %for.body.preheader, label %if.end22

for.body.preheader:                               ; preds = %for.cond.preheader
  %wide.trip.count = zext nneg i32 %transCount to i64
  br label %for.body

for.body:                                         ; preds = %for.body.preheader, %for.inc
  %indvars.iv = phi i64 [ 0, %for.body.preheader ], [ %indvars.iv.next, %for.inc ]
  %arrayidx = getelementptr inbounds ptr, ptr %transliterators, i64 %indvars.iv
  %0 = load ptr, ptr %arrayidx, align 8
  %vtable = load ptr, ptr %0, align 8
  %vfn = getelementptr inbounds i8, ptr %vtable, i64 24
  %1 = load ptr, ptr %vfn, align 8
  %call3 = tail call noundef ptr %1(ptr noundef nonnull align 8 dereferenceable(84) %0)
  %arrayidx5 = getelementptr inbounds ptr, ptr %call, i64 %indvars.iv
  store ptr %call3, ptr %arrayidx5, align 8
  %cmp8 = icmp eq ptr %call3, null
  br i1 %cmp8, label %for.end, label %for.inc

for.inc:                                          ; preds = %for.body
  %indvars.iv.next = add nuw nsw i64 %indvars.iv, 1
  %exitcond.not = icmp eq i64 %indvars.iv.next, %wide.trip.count
  br i1 %exitcond.not, label %if.end22, label %for.body, !llvm.loop !9

for.end:                                          ; preds = %for.body
  %2 = and i64 %indvars.iv, 4294967295
  %cmp11.not = icmp eq i64 %2, 0
  br i1 %cmp11.not, label %if.end22, label %for.body15

for.body15:                                       ; preds = %for.end, %for.body15
  %indvars.iv26 = phi i64 [ %indvars.iv.next27, %for.body15 ], [ %indvars.iv, %for.end ]
  %indvars.iv.next27 = add nsw i64 %indvars.iv26, -1
  %idxprom16 = and i64 %indvars.iv.next27, 4294967295
  %arrayidx17 = getelementptr inbounds ptr, ptr %call, i64 %idxprom16
  %3 = load ptr, ptr %arrayidx17, align 8
  tail call void @uprv_free_75(ptr noundef %3)
  store ptr null, ptr %arrayidx17, align 8
  %4 = icmp sgt i64 %indvars.iv26, 1
  br i1 %4, label %for.body15, label %return, !llvm.loop !10

if.end22:                                         ; preds = %for.inc, %for.cond.preheader, %for.end
  tail call void @_ZN6icu_7522CompoundTransliterator20adoptTransliteratorsEPPNS_14TransliteratorEi(ptr noundef nonnull align 8 dereferenceable(104) %this, ptr noundef nonnull %call, i32 noundef %transCount)
  br label %return

return:                                           ; preds = %for.body15, %entry, %if.end22
  ret void
}